; Function Attrs: inlinehint nounwind uwtable
define internal fastcc zeroext i1 @lxb_html_tree_insertion_mode_in_body_amo(ptr noundef %0, ptr noundef %1) unnamed_addr #3 {
  %3 = tail call i32 @lxb_html_tree_active_formatting_reconstruct_elements(ptr noundef %0) #6
  %4 = getelementptr inbounds nuw i8, ptr %0, i64 112
  store i32 %3, ptr %4, align 8, !tbaa !22
  %.not = icmp eq i32 %3, 0
  br i1 %.not, label %7, label %5

5:                                                ; preds = %2
  %6 = tail call zeroext i1 @lxb_html_tree_process_abort(ptr noundef nonnull %0) #6
  br label %20

7:                                                ; preds = %2
  %8 = tail call ptr @lxb_html_tree_insert_foreign_element(ptr noundef nonnull %0, ptr noundef %1, i64 noundef 2) #6
  %9 = icmp eq ptr %8, null
  br i1 %9, label %10, label %12

10:                                               ; preds = %7
  store i32 2, ptr %4, align 8, !tbaa !22
  %11 = tail call zeroext i1 @lxb_html_tree_process_abort(ptr noundef nonnull %0) #6
  br label %20

12:                                               ; preds = %7
  %13 = getelementptr i8, ptr %0, i64 40
  %.val = load ptr, ptr %13, align 8, !tbaa !71
  %14 = tail call ptr @lxb_html_tree_active_formatting_marker() #6
  %15 = tail call i32 @lexbor_array_push(ptr noundef %.val, ptr noundef %14) #6
  store i32 %15, ptr %4, align 8, !tbaa !22
  %.not15 = icmp eq i32 %15, 0
  br i1 %.not15, label %18, label %16

16:                                               ; preds = %12
  %17 = tail call zeroext i1 @lxb_html_tree_process_abort(ptr noundef nonnull %0) #6
  br label %20

18:                                               ; preds = %12
  %19 = getelementptr inbounds nuw i8, ptr %0, i64 81
  store i8 0, ptr %19, align 1, !tbaa !25
  br label %20

20:                                               ; preds = %18, %16, %10, %5
  %.0 = phi i1 [ %6, %5 ], [ %11, %10 ], [ %17, %16 ], [ true, %18 ]
  ret i1 %.0
}